; Function Attrs: nounwind uwtable
define hidden zeroext i1 @SDL_SetGamepadPlayerIndex_REAL(ptr noundef %0, i32 noundef %1) local_unnamed_addr #0 {
  tail call void @SDL_LockJoysticks_REAL() #10
  %3 = tail call zeroext i1 @SDL_ObjectValid(ptr noundef %0, i32 noundef 5) #10
  br i1 %3, label %4, label %SDL_GetGamepadJoystick_REAL.exit.thread

4:                                                ; preds = %2
  %5 = load ptr, ptr %0, align 8
  %6 = tail call zeroext i1 @SDL_IsJoystickValid(ptr noundef %5) #10
  br i1 %6, label %SDL_GetGamepadJoystick_REAL.exit, label %SDL_GetGamepadJoystick_REAL.exit.thread

SDL_GetGamepadJoystick_REAL.exit.thread:          ; preds = %2, %4
  %7 = tail call zeroext i1 (ptr, ...) @SDL_SetError_REAL(ptr noundef nonnull @.str.4, ptr noundef nonnull @.str.5) #10
  tail call void @SDL_UnlockJoysticks_REAL() #10
  br label %11

SDL_GetGamepadJoystick_REAL.exit:                 ; preds = %4
  %8 = load ptr, ptr %0, align 8
  tail call void @SDL_UnlockJoysticks_REAL() #10
  %.not = icmp eq ptr %8, null
  br i1 %.not, label %11, label %9

9:                                                ; preds = %SDL_GetGamepadJoystick_REAL.exit
  %10 = tail call zeroext i1 @SDL_SetJoystickPlayerIndex_REAL(ptr noundef nonnull %8, i32 noundef %1) #10
  br label %11

11:                                               ; preds = %SDL_GetGamepadJoystick_REAL.exit.thread, %SDL_GetGamepadJoystick_REAL.exit, %9
  %.0 = phi i1 [ %10, %9 ], [ false, %SDL_GetGamepadJoystick_REAL.exit ], [ false, %SDL_GetGamepadJoystick_REAL.exit.thread ]
  ret i1 %.0
}